; Function Attrs: nounwind uwtable
define internal fastcc range(i32 -2147483648, 2) i32 @r_e_ending(ptr noundef initializes((24, 28)) %0) unnamed_addr #0 {
  %2 = getelementptr inbounds nuw i8, ptr %0, i64 40
  %3 = load ptr, ptr %2, align 8
  %4 = getelementptr inbounds nuw i8, ptr %3, i64 8
  store i32 0, ptr %4, align 4
  %5 = getelementptr inbounds nuw i8, ptr %0, i64 8
  %6 = load i32, ptr %5, align 8
  %7 = getelementptr inbounds nuw i8, ptr %0, i64 24
  store i32 %6, ptr %7, align 8
  %8 = getelementptr inbounds nuw i8, ptr %0, i64 16
  %9 = load i32, ptr %8, align 8
  %.not = icmp sgt i32 %6, %9
  br i1 %.not, label %10, label %r_undouble.exit

10:                                               ; preds = %1
  %11 = load ptr, ptr %0, align 8
  %12 = add nsw i32 %6, -1
  %13 = sext i32 %12 to i64
  %14 = getelementptr inbounds i8, ptr %11, i64 %13
  %15 = load i8, ptr %14, align 1
  %.not37 = icmp eq i8 %15, 101
  br i1 %.not37, label %16, label %r_undouble.exit

16:                                               ; preds = %10
  store i32 %12, ptr %5, align 8
  %17 = getelementptr inbounds nuw i8, ptr %0, i64 20
  store i32 %12, ptr %17, align 4
  %.val45 = load ptr, ptr %2, align 8
  %18 = getelementptr i8, ptr %.val45, i64 4
  %.val45.val = load i32, ptr %18, align 4
  %.not.i = icmp slt i32 %.val45.val, %6
  br i1 %.not.i, label %19, label %r_undouble.exit

19:                                               ; preds = %16
  %20 = getelementptr inbounds nuw i8, ptr %0, i64 12
  %21 = load i32, ptr %20, align 4
  %22 = tail call i32 @out_grouping_b(ptr noundef nonnull %0, ptr noundef nonnull @g_v, i32 noundef 97, i32 noundef 232, i32 noundef 0) #3
  %.not39.not = icmp eq i32 %22, 0
  br i1 %.not39.not, label %23, label %r_undouble.exit

23:                                               ; preds = %19
  %.neg = sub i32 %12, %21
  %24 = load i32, ptr %20, align 4
  %25 = add i32 %.neg, %24
  store i32 %25, ptr %5, align 8
  %26 = tail call i32 @slice_del(ptr noundef nonnull %0) #3
  %27 = icmp sgt i32 %26, -1
  br i1 %27, label %28, label %r_undouble.exit

28:                                               ; preds = %23
  %29 = load ptr, ptr %2, align 8
  %30 = getelementptr inbounds nuw i8, ptr %29, i64 8
  store i32 1, ptr %30, align 4
  %31 = load i32, ptr %20, align 4
  %32 = load i32, ptr %5, align 8
  %.neg.i = sub i32 %32, %31
  %33 = add i32 %32, -1
  %34 = load i32, ptr %8, align 8
  %.not.i46 = icmp sgt i32 %33, %34
  br i1 %.not.i46, label %35, label %r_undouble.exit

35:                                               ; preds = %28
  %36 = load ptr, ptr %0, align 8
  %37 = sext i32 %33 to i64
  %38 = getelementptr inbounds i8, ptr %36, i64 %37
  %39 = load i8, ptr %38, align 1
  %40 = zext i8 %39 to i32
  %.mask.i = and i32 %40, 224
  %.not28.i = icmp eq i32 %.mask.i, 96
  br i1 %.not28.i, label %41, label %r_undouble.exit

41:                                               ; preds = %35
  %42 = and i32 %40, 31
  %43 = shl nuw i32 1, %42
  %44 = and i32 %43, 1050640
  %.not29.i = icmp eq i32 %44, 0
  br i1 %.not29.i, label %r_undouble.exit, label %45

45:                                               ; preds = %41
  %46 = tail call i32 @find_among_b(ptr noundef nonnull %0, ptr noundef nonnull @a_2, i32 noundef 3) #3
  %.not30.i = icmp eq i32 %46, 0
  br i1 %.not30.i, label %r_undouble.exit, label %47

47:                                               ; preds = %45
  %48 = load i32, ptr %20, align 4
  %49 = add i32 %48, %.neg.i
  store i32 %49, ptr %5, align 8
  store i32 %49, ptr %7, align 8
  %50 = load i32, ptr %8, align 8
  %.not31.i = icmp sgt i32 %49, %50
  br i1 %.not31.i, label %51, label %r_undouble.exit

51:                                               ; preds = %47
  %52 = add nsw i32 %49, -1
  store i32 %52, ptr %5, align 8
  store i32 %52, ptr %17, align 4
  %53 = tail call i32 @slice_del(ptr noundef nonnull %0) #3
  %54 = icmp sgt i32 %53, -1
  %..i47 = tail call i32 @llvm.smin.i32(i32 %53, i32 0)
  %spec.select.i = select i1 %54, i32 1, i32 %..i47
  br label %r_undouble.exit

r_undouble.exit:                                  ; preds = %51, %47, %45, %41, %35, %28, %19, %23, %16, %1, %10
  %.0 = phi i32 [ 0, %16 ], [ %26, %23 ], [ 0, %10 ], [ 0, %1 ], [ 0, %19 ], [ 0, %47 ], [ %spec.select.i, %51 ], [ 0, %41 ], [ 0, %35 ], [ 0, %28 ], [ 0, %45 ]
  ret i32 %.0
}